; Function Attrs: mustprogress nofree nounwind uwtable
define noundef zeroext i1 @_ZN8tinyxml27XMLUtil12ToUnsigned64EPKcPm(ptr noundef readonly captures(none) %0, ptr noundef writeonly captures(none) %1) local_unnamed_addr #14 align 2 {
  %3 = alloca i64, align 8
  call void @llvm.lifetime.start.p0(i64 8, ptr nonnull %3) #31
  store i64 0, ptr %3, align 8, !tbaa !34
  %4 = load i8, ptr %0, align 1, !tbaa !12
  %5 = icmp slt i8 %4, 0
  br i1 %5, label %_ZN8tinyxml27XMLUtil11IsPrefixHexEPKc.exit.thread, label %_ZN8tinyxml27XMLUtil12IsWhiteSpaceEc.exit.us.i.i

_ZN8tinyxml27XMLUtil12IsWhiteSpaceEc.exit.us.i.i: ; preds = %2, %8
  %.pr.i = phi i8 [ %10, %8 ], [ %4, %2 ]
  %.08.us.i.i = phi ptr [ %9, %8 ], [ %0, %2 ]
  %6 = zext nneg i8 %.pr.i to i32
  %7 = tail call i32 @isspace(i32 noundef %6) #33
  %.not7.us.i.i = icmp eq i32 %7, 0
  br i1 %.not7.us.i.i, label %_ZN8tinyxml27XMLUtil14SkipWhiteSpaceEPKcPi.exit.i, label %8

8:                                                ; preds = %_ZN8tinyxml27XMLUtil12IsWhiteSpaceEc.exit.us.i.i
  %9 = getelementptr inbounds nuw i8, ptr %.08.us.i.i, i64 1
  %10 = load i8, ptr %9, align 1, !tbaa !12
  %11 = icmp slt i8 %10, 0
  br i1 %11, label %_ZN8tinyxml27XMLUtil11IsPrefixHexEPKc.exit.thread, label %_ZN8tinyxml27XMLUtil12IsWhiteSpaceEc.exit.us.i.i, !llvm.loop !17

_ZN8tinyxml27XMLUtil14SkipWhiteSpaceEPKcPi.exit.i: ; preds = %_ZN8tinyxml27XMLUtil12IsWhiteSpaceEc.exit.us.i.i
  %12 = icmp eq i8 %.pr.i, 48
  br i1 %12, label %_ZN8tinyxml27XMLUtil11IsPrefixHexEPKc.exit, label %_ZN8tinyxml27XMLUtil11IsPrefixHexEPKc.exit.thread

_ZN8tinyxml27XMLUtil11IsPrefixHexEPKc.exit:       ; preds = %_ZN8tinyxml27XMLUtil14SkipWhiteSpaceEPKcPi.exit.i
  %13 = getelementptr inbounds nuw i8, ptr %.08.us.i.i, i64 1
  %14 = load i8, ptr %13, align 1, !tbaa !12
  %.fr5 = freeze i8 %14
  %15 = and i8 %.fr5, -33
  %spec.select.i = icmp eq i8 %15, 88
  %spec.select = select i1 %spec.select.i, ptr @.str.16, ptr @.str.8
  br label %_ZN8tinyxml27XMLUtil11IsPrefixHexEPKc.exit.thread

_ZN8tinyxml27XMLUtil11IsPrefixHexEPKc.exit.thread: ; preds = %8, %_ZN8tinyxml27XMLUtil11IsPrefixHexEPKc.exit, %2, %_ZN8tinyxml27XMLUtil14SkipWhiteSpaceEPKcPi.exit.i
  %16 = phi ptr [ @.str.8, %_ZN8tinyxml27XMLUtil14SkipWhiteSpaceEPKcPi.exit.i ], [ @.str.8, %2 ], [ %spec.select, %_ZN8tinyxml27XMLUtil11IsPrefixHexEPKc.exit ], [ @.str.8, %8 ]
  %17 = call i32 (ptr, ptr, ...) @__isoc99_sscanf(ptr noundef nonnull %0, ptr noundef nonnull %16, ptr noundef nonnull %3) #31
  %18 = icmp eq i32 %17, 1
  br i1 %18, label %19, label %21

19:                                               ; preds = %_ZN8tinyxml27XMLUtil11IsPrefixHexEPKc.exit.thread
  %20 = load i64, ptr %3, align 8, !tbaa !34
  store i64 %20, ptr %1, align 8, !tbaa !27
  br label %21

21:                                               ; preds = %_ZN8tinyxml27XMLUtil11IsPrefixHexEPKc.exit.thread, %19
  call void @llvm.lifetime.end.p0(i64 8, ptr nonnull %3) #31
  ret i1 %18
}